target datalayout = "e-m:e-p270:32:32-p271:32:32-p272:64:64-i64:64-i128:128-f80:128-n8:16:32:64-S128"
target triple = "x86_64-pc-linux-gnu"

%struct.mbedtls_dhm_context = type { %struct.mbedtls_mpi, %struct.mbedtls_mpi, %struct.mbedtls_mpi, %struct.mbedtls_mpi, %struct.mbedtls_mpi, %struct.mbedtls_mpi, %struct.mbedtls_mpi, %struct.mbedtls_mpi, %struct.mbedtls_mpi, %struct.mbedtls_mpi }
%struct.mbedtls_mpi = type { ptr, i16, i16 }

; Function Attrs: nounwind uwtable
define hidden i32 @mbedtls_dhm_get_value(ptr noundef %0, i32 noundef %1, ptr noundef %2) #0 {
  %4 = alloca i32, align 4
  %5 = alloca ptr, align 8
  %6 = alloca i32, align 4
  %7 = alloca ptr, align 8
  %8 = alloca ptr, align 8
  %9 = alloca i32, align 4
  store ptr %0, ptr %5, align 8, !tbaa !3
  store i32 %1, ptr %6, align 4, !tbaa !8
  store ptr %2, ptr %7, align 8, !tbaa !10
  call void @llvm.lifetime.start.p0(i64 8, ptr %8) #10
  store ptr null, ptr %8, align 8, !tbaa !10
  %10 = load i32, ptr %6, align 4, !tbaa !8
  switch i32 %10, label %29 [
    i32 0, label %11
    i32 1, label %14
    i32 2, label %17
    i32 3, label %20
    i32 4, label %23
    i32 5, label %26
  ]

11:                                               ; preds = %3
  %12 = load ptr, ptr %5, align 8, !tbaa !3
  %13 = getelementptr inbounds nuw %struct.mbedtls_dhm_context, ptr %12, i32 0, i32 0
  store ptr %13, ptr %8, align 8, !tbaa !10
  br label %30

14:                                               ; preds = %3
  %15 = load ptr, ptr %5, align 8, !tbaa !3
  %16 = getelementptr inbounds nuw %struct.mbedtls_dhm_context, ptr %15, i32 0, i32 1
  store ptr %16, ptr %8, align 8, !tbaa !10
  br label %30

17:                                               ; preds = %3
  %18 = load ptr, ptr %5, align 8, !tbaa !3
  %19 = getelementptr inbounds nuw %struct.mbedtls_dhm_context, ptr %18, i32 0, i32 2
  store ptr %19, ptr %8, align 8, !tbaa !10
  br label %30

20:                                               ; preds = %3
  %21 = load ptr, ptr %5, align 8, !tbaa !3
  %22 = getelementptr inbounds nuw %struct.mbedtls_dhm_context, ptr %21, i32 0, i32 3
  store ptr %22, ptr %8, align 8, !tbaa !10
  br label %30

23:                                               ; preds = %3
  %24 = load ptr, ptr %5, align 8, !tbaa !3
  %25 = getelementptr inbounds nuw %struct.mbedtls_dhm_context, ptr %24, i32 0, i32 4
  store ptr %25, ptr %8, align 8, !tbaa !10
  br label %30

26:                                               ; preds = %3
  %27 = load ptr, ptr %5, align 8, !tbaa !3
  %28 = getelementptr inbounds nuw %struct.mbedtls_dhm_context, ptr %27, i32 0, i32 5
  store ptr %28, ptr %8, align 8, !tbaa !10
  br label %30

29:                                               ; preds = %3
  store i32 -12416, ptr %4, align 4
  store i32 1, ptr %9, align 4
  br label %34

30:                                               ; preds = %26, %23, %20, %17, %14, %11
  %31 = load ptr, ptr %7, align 8, !tbaa !10
  %32 = load ptr, ptr %8, align 8, !tbaa !10
  %33 = call i32 @mbedtls_mpi_copy(ptr noundef %31, ptr noundef %32)
  store i32 %33, ptr %4, align 4
  store i32 1, ptr %9, align 4
  br label %34

34:                                               ; preds = %30, %29
  call void @llvm.lifetime.end.p0(i64 8, ptr %8) #10
  %35 = load i32, ptr %4, align 4
  ret i32 %35
}