; Function Attrs: nounwind uwtable
define hidden i32 @mbedtls_dhm_get_value(ptr noundef %0, i32 noundef %1, ptr noundef %2) local_unnamed_addr #2 {
  switch i32 %1, label %16 [
    i32 0, label %14
    i32 1, label %4
    i32 2, label %6
    i32 3, label %8
    i32 4, label %10
    i32 5, label %12
  ]

4:                                                ; preds = %3
  %5 = getelementptr inbounds nuw i8, ptr %0, i64 16
  br label %14

6:                                                ; preds = %3
  %7 = getelementptr inbounds nuw i8, ptr %0, i64 32
  br label %14

8:                                                ; preds = %3
  %9 = getelementptr inbounds nuw i8, ptr %0, i64 48
  br label %14

10:                                               ; preds = %3
  %11 = getelementptr inbounds nuw i8, ptr %0, i64 64
  br label %14

12:                                               ; preds = %3
  %13 = getelementptr inbounds nuw i8, ptr %0, i64 80
  br label %14

14:                                               ; preds = %3, %12, %10, %8, %6, %4
  %.0 = phi ptr [ %13, %12 ], [ %11, %10 ], [ %9, %8 ], [ %7, %6 ], [ %5, %4 ], [ %0, %3 ]
  %15 = tail call i32 @mbedtls_mpi_copy(ptr noundef %2, ptr noundef %.0) #10
  br label %16

16:                                               ; preds = %3, %14
  %.09 = phi i32 [ %15, %14 ], [ -12416, %3 ]
  ret i32 %.09
}